CCS PCM C Compiler, Version 5.007, 61971               23-Mar-21 21:16

               Filename:   C:\Users\canbe\OneDrive\Masaüstü\PIC_Programming_CCS(C)\Matrix_Led_Display\PIC_C_Compiler\Matrix_Led_Display.lst

               ROM used:   239 words (3%)
                           Largest free fragment is 2048
               RAM used:   41 (11%) at main() level
                           48 (13%) worst case
               Stack used: 0 locations
               Stack size: 8

*
0000:  MOVLW  00
0001:  MOVWF  0A
0002:  GOTO   068
0003:  NOP
.................... /****************************************************************************** 
.................... *Project Name: PMatrix Led Display 
.................... *Engineer: Canberk SAHIN 
.................... *Project Microcontroller: PIC16F877 
.................... *Version: V1 
.................... *Create Date: 21.03.2021 
.................... *Update Date: 21.03.2021 
.................... *University: Bursa Technical University 
.................... *Revision: -  
.................... ******************************************************************************/ 
.................... #include <Matrix_Led_Display.h> 
.................... #include <16F877.h> 
.................... //////// Standard Header file for the PIC16F877 device //////////////// 
.................... #device PIC16F877 
*
0020:  BCF    0A.0
0021:  BCF    0A.1
0022:  BCF    0A.2
0023:  ADDWF  02,F
0024:  GOTO   00A
0025:  GOTO   00E
0026:  GOTO   012
0027:  GOTO   016
0028:  GOTO   01A
....................  
.................... #list 
....................  
.................... #device ADC=16 
....................  
.................... #FUSES NOWDT                    //No Watch Dog Timer 
.................... #FUSES NOBROWNOUT               //No brownout reset 
.................... #FUSES NOLVP                    //No low voltage prgming, B3(PIC16) or B5(PIC18) used for I/O 
.................... #FUSES XT                       //Crystal or ceramic resonator (Xtal) 
.................... #FUSES NOPROTECT                //No protection against reading to ROM memory 
.................... #FUSES NOPUT                    //No Power Up Timer. Defines if PUT is not desired 
.................... #FUSES NOWRT                    //Program memory not write protected 
.................... #FUSES NODEBUG                  //No Debug mode for ICD 
.................... #FUSES NOCPD                    //No Code Protected Data. Used when protection of EEPROM memory is not requested 
....................  
.................... #use delay(crystal=20000000)    //Oscillator frequency used for the delay function 
*
004E:  MOVLW  4A
004F:  MOVWF  04
0050:  BCF    03.7
0051:  MOVF   00,W
0052:  BTFSC  03.2
0053:  GOTO   061
0054:  MOVLW  06
0055:  MOVWF  78
0056:  CLRF   77
0057:  DECFSZ 77,F
0058:  GOTO   057
0059:  DECFSZ 78,F
005A:  GOTO   056
005B:  MOVLW  7B
005C:  MOVWF  77
005D:  DECFSZ 77,F
005E:  GOTO   05D
005F:  DECFSZ 00,F
0060:  GOTO   054
....................  
.................... #use fast_io(a)                 //Port processing commands are valid for A port 
.................... #use fast_io(b)                 //Port processing commands are valid for B port 
....................  
....................  
....................  
.................... //Character information to be sent to Matrix Led (Arrays) 
.................... int A[]={0x03,0x75,0x76,0x75,0x03}; 
*
0072:  MOVLW  03
0073:  BCF    03.5
0074:  MOVWF  20
0075:  MOVLW  75
0076:  MOVWF  21
0077:  MOVLW  76
0078:  MOVWF  22
0079:  MOVLW  75
007A:  MOVWF  23
007B:  MOVLW  03
007C:  MOVWF  24
.................... int B[]={0x00,0x36,0x36,0x36,0x49}; 
007D:  CLRF   25
007E:  MOVLW  36
007F:  MOVWF  26
0080:  MOVWF  27
0081:  MOVWF  28
0082:  MOVLW  49
0083:  MOVWF  29
.................... int C[]={0x41,0x3E,0x3E,0x3E,0x5D}; 
0084:  MOVLW  41
0085:  MOVWF  2A
0086:  MOVLW  3E
0087:  MOVWF  2B
0088:  MOVWF  2C
0089:  MOVWF  2D
008A:  MOVLW  5D
008B:  MOVWF  2E
.................... int D[]={0x00,0x3E,0x3E,0x3E,0x41}; 
008C:  CLRF   2F
008D:  MOVLW  3E
008E:  MOVWF  30
008F:  MOVWF  31
0090:  MOVWF  32
0091:  MOVLW  41
0092:  MOVWF  33
.................... int E[]={0x00,0xB6,0xB6,0xB6,0xBE}; 
0093:  CLRF   34
0094:  MOVLW  B6
0095:  MOVWF  35
0096:  MOVWF  36
0097:  MOVWF  37
0098:  MOVLW  BE
0099:  MOVWF  38
.................... int plus[]={0x77,0x77,0x41,0x77,0x77}; 
009A:  MOVLW  77
009B:  MOVWF  39
009C:  MOVWF  3A
009D:  MOVLW  41
009E:  MOVWF  3B
009F:  MOVLW  77
00A0:  MOVWF  3C
00A1:  MOVWF  3D
.................... int d_arrow[]={0x6B,0x5D,0x00,0x5D,0x6B}; 
00A2:  MOVLW  6B
00A3:  MOVWF  3E
00A4:  MOVLW  5D
00A5:  MOVWF  3F
00A6:  CLRF   40
00A7:  MOVWF  41
00A8:  MOVLW  6B
00A9:  MOVWF  42
....................  
.................... //Column selection function definition 
.................... int colselect(char s) 
.................... { 
....................    switch(s){ 
*
0004:  MOVF   4A,W
0005:  ADDLW  FB
0006:  BTFSC  03.0
0007:  GOTO   01D
0008:  ADDLW  05
0009:  GOTO   020
....................       case 0: return (0x10); break;  //1st column active others passive (0001 0000) 
000A:  MOVLW  10
000B:  MOVWF  78
000C:  GOTO   01D
000D:  GOTO   01D
....................       case 1: return (0x08); break;  //2nd column active others passive (0000 1000) 
000E:  MOVLW  08
000F:  MOVWF  78
0010:  GOTO   01D
0011:  GOTO   01D
....................       case 2: return (0x04); break;  //3rd column active others passive (0000 0100) 
0012:  MOVLW  04
0013:  MOVWF  78
0014:  GOTO   01D
0015:  GOTO   01D
....................       case 3: return (0x02); break;  //4th column active others passive (0000 0010) 
0016:  MOVLW  02
0017:  MOVWF  78
0018:  GOTO   01D
0019:  GOTO   01D
....................       case 4: return (0x01); break;  //5th column active others passive (0000 0001) 
001A:  MOVLW  01
001B:  MOVWF  78
001C:  GOTO   01D
....................    } 
001D:  BCF    0A.3
001E:  BCF    0A.4
001F:  GOTO   03C (RETURN)
.................... } 
....................  
.................... //Data Sending Function to Matrix Led Display 
.................... void send_char_matrix(char *ch, int count) 
.................... { 
....................    int i,j,k;  //for loop 
....................     
....................    for(i=1; i<count; ++i){ //Repeat loop for the character to appear on the display for a certain time 
*
0029:  MOVLW  01
002A:  MOVWF  47
002B:  MOVF   46,W
002C:  SUBWF  47,W
002D:  BTFSC  03.0
002E:  GOTO   067
....................       for(k=0; k<10;  ++k){ //Scan Cycle (Scanning fo display) 
002F:  CLRF   49
0030:  MOVF   49,W
0031:  SUBLW  09
0032:  BTFSS  03.0
0033:  GOTO   065
....................          for(j=0; j<5; ++j){ //Choosing the columns in order 
0034:  CLRF   48
0035:  MOVF   48,W
0036:  SUBLW  04
0037:  BTFSS  03.0
0038:  GOTO   063
....................             output_c(colselect(j)); //Select column and send column value to C port 
0039:  MOVF   48,W
003A:  MOVWF  4A
003B:  GOTO   004
003C:  MOVLW  00
003D:  MOVWF  43
003E:  BSF    03.5
003F:  CLRF   07
0040:  BCF    03.5
0041:  MOVF   78,W
0042:  MOVWF  07
....................              
....................             output_b(ch[j]); //Send the line information of the letter to be displayed to port B 
0043:  MOVF   48,W
0044:  ADDWF  44,W
0045:  MOVWF  04
0046:  BCF    03.7
0047:  BTFSC  45.0
0048:  BSF    03.7
0049:  MOVF   00,W
004A:  MOVWF  4A
004B:  MOVWF  06
....................               
....................             delay_ms(1);     //1 millisecond delay 
004C:  MOVLW  01
004D:  MOVWF  4A
*
0061:  INCF   48,F
0062:  GOTO   035
....................          } 
0063:  INCF   49,F
0064:  GOTO   030
....................       } 
0065:  INCF   47,F
0066:  GOTO   02B
....................    } 
0067:  RETURN
.................... } 
....................  
.................... void main() 
0068:  MOVLW  FF
0069:  MOVWF  43
006A:  BSF    03.5
006B:  BSF    1F.0
006C:  BSF    1F.1
006D:  BSF    1F.2
006E:  BCF    1F.3
006F:  BCF    03.7
0070:  MOVLW  1F
0071:  ANDWF  03,F
.................... { 
....................    setup_psp(PSP_DISABLED);           //PSP unit is disabled   
*
00AA:  BSF    03.5
00AB:  BCF    09.4
....................    setup_timer_1(T1_DISABLED);        //T1 unit is disabled 
00AC:  BCF    03.5
00AD:  CLRF   10
....................    setup_timer_2(T2_DISABLED, 0, 1);  //T2 unit is disabled 
00AE:  MOVLW  00
00AF:  MOVWF  78
00B0:  MOVWF  12
00B1:  MOVLW  00
00B2:  BSF    03.5
00B3:  MOVWF  12
....................    setup_adc_ports(NO_ANALOGS);       //There is no analog input  
00B4:  BSF    1F.0
00B5:  BSF    1F.1
00B6:  BSF    1F.2
00B7:  BCF    1F.3
....................    setup_adc(ADC_OFF);                //ADC unit is disabled 
00B8:  BCF    03.5
00B9:  BCF    1F.0
....................    setup_CCP1(CCP_OFF);               //CCP1 unit is disabled. 
00BA:  MOVLW  F0
00BB:  ANDWF  17,F
....................    setup_CCP2(CCP_OFF);               //CCP2 unit is disabled. 
00BC:  ANDWF  1D,F
....................     
....................    set_tris_b(0x00);    //Port B is set as output 
00BD:  MOVLW  00
00BE:  BSF    03.5
00BF:  MOVWF  06
....................    set_tris_c(0x00);    //Port C is set as output 
00C0:  MOVWF  07
00C1:  BCF    03.5
00C2:  MOVWF  43
....................     
....................    while(TRUE) 
....................    { 
....................       send_char_matrix(A, 20);       //Printed the character A on the matrix display. 
00C3:  CLRF   45
00C4:  MOVLW  20
00C5:  MOVWF  44
00C6:  MOVLW  14
00C7:  MOVWF  46
00C8:  CALL   029
....................       send_char_matrix(B, 20);       //Printed the character B on the matrix display. 
00C9:  CLRF   45
00CA:  MOVLW  25
00CB:  MOVWF  44
00CC:  MOVLW  14
00CD:  MOVWF  46
00CE:  CALL   029
....................       send_char_matrix(C, 20);       //Printed the character C on the matrix display. 
00CF:  CLRF   45
00D0:  MOVLW  2A
00D1:  MOVWF  44
00D2:  MOVLW  14
00D3:  MOVWF  46
00D4:  CALL   029
....................       send_char_matrix(D, 20);       //Printed the character D on the matrix display. 
00D5:  CLRF   45
00D6:  MOVLW  2F
00D7:  MOVWF  44
00D8:  MOVLW  14
00D9:  MOVWF  46
00DA:  CALL   029
....................       send_char_matrix(E, 20);       //Printed the character E on the matrix display. 
00DB:  CLRF   45
00DC:  MOVLW  34
00DD:  MOVWF  44
00DE:  MOVLW  14
00DF:  MOVWF  46
00E0:  CALL   029
....................       send_char_matrix(plus 20);     //Printed the character plus character on the matrix display. 
00E1:  CLRF   45
00E2:  MOVLW  39
00E3:  MOVWF  44
00E4:  MOVLW  14
00E5:  MOVWF  46
00E6:  CALL   029
....................       send_char_matrix(d_arrow 20);  //Printed the character double arrow character on the matrix display. 
00E7:  CLRF   45
00E8:  MOVLW  3E
00E9:  MOVWF  44
00EA:  MOVLW  14
00EB:  MOVWF  46
00EC:  CALL   029
00ED:  GOTO   0C3
....................    } 
....................  
.................... } 
00EE:  SLEEP

Configuration Fuses:
   Word  1: 3F3A   HS NOWDT NOPUT NOBROWNOUT NOLVP NOCPD NOWRT NODEBUG NOPROTECT
